target datalayout = "e-m:e-p270:32:32-p271:32:32-p272:64:64-i64:64-i128:128-f80:128-n8:16:32:64-S128"
target triple = "x86_64-pc-linux-gnu"

%struct.pmix_class_t = type { ptr, ptr, ptr, ptr, i32, i32, ptr, ptr, i64 }
%union.pthread_mutex_t = type { %struct.__pthread_mutex_s }
%struct.__pthread_mutex_s = type { i32, i32, i32, i32, i32, i16, i16, %struct.__pthread_internal_list }
%struct.__pthread_internal_list = type { ptr, ptr }
%struct.pmix_tma = type { ptr, ptr, ptr, ptr, ptr, ptr, ptr, ptr }
%struct.pmix_proc = type { [256 x i8], i32 }
%struct.pmix_object_t = type { %union.pthread_mutex_t, ptr, i32, %struct.pmix_tma }
%struct.timeval = type { i64, i64 }
%struct.pmix_list_t = type { %struct.pmix_object_t, %struct.pmix_list_item_t, i64 }
%struct.pmix_list_item_t = type { %struct.pmix_object_t, ptr, ptr, i32 }
%struct.event = type { %struct.event_callback, %union.anon.1, i32, ptr, %union.anon.3, i16, i16, %struct.timeval }
%struct.event_callback = type { %struct.anon, i16, i8, i8, %union.anon.0, ptr }
%struct.anon = type { ptr, ptr }
%union.anon.0 = type { ptr }
%union.anon.1 = type { %struct.anon.2 }
%struct.anon.2 = type { ptr, ptr }
%union.anon.3 = type { %struct.anon.4 }
%struct.anon.4 = type { %struct.anon.5, %struct.timeval }
%struct.anon.5 = type { ptr, ptr }
%struct.pmix_pfexec_child_t = type { %struct.pmix_list_item_t, %struct.event, %struct.pmix_proc, i32, i8, i32, [2 x i32], %struct.pmix_pfexec_base_io_conf_t, %struct.pmix_iof_sink_t, ptr, ptr }
%struct.pmix_pfexec_base_io_conf_t = type { i32, i8, [2 x i32], [2 x i32], [2 x i32] }
%struct.pmix_iof_sink_t = type { %struct.pmix_list_item_t, %struct.pmix_proc, i16, %struct.pmix_iof_write_event_t, i8, i8, i8 }
%struct.pmix_iof_write_event_t = type { %struct.pmix_list_item_t, i8, i8, i32, ptr, %struct.timeval, i32, %struct.pmix_list_t }

@.str.11 = private unnamed_addr constant [21 x i8] c"pthread_mutex_lock()\00", align 1

; Function Attrs: inlinehint nounwind uwtable
define internal void @pmix_tma_free(ptr noundef %0, ptr noundef %1) #2 {
  %3 = alloca ptr, align 8
  %4 = alloca ptr, align 8
  store ptr %0, ptr %3, align 8, !tbaa !51
  store ptr %1, ptr %4, align 8, !tbaa !9
  %5 = load ptr, ptr %3, align 8, !tbaa !51
  %6 = icmp ne ptr null, %5
  br i1 %6, label %7, label %13

7:                                                ; preds = %2
  %8 = load ptr, ptr %3, align 8, !tbaa !51
  %9 = getelementptr inbounds nuw %struct.pmix_tma, ptr %8, i32 0, i32 5
  %10 = load ptr, ptr %9, align 8, !tbaa !53
  %11 = load ptr, ptr %3, align 8, !tbaa !51
  %12 = load ptr, ptr %4, align 8, !tbaa !9
  call void %10(ptr noundef %11, ptr noundef %12)
  br label %15

13:                                               ; preds = %2
  %14 = load ptr, ptr %4, align 8, !tbaa !9
  call void @free(ptr noundef %14) #10
  br label %15

15:                                               ; preds = %13, %7
  ret void
}

; Function Attrs: alwaysinline nounwind uwtable
define internal i32 @pmix_obj_update(ptr noundef %0, i32 noundef %1) #4 {
  %3 = alloca ptr, align 8
  %4 = alloca i32, align 4
  %5 = alloca i32, align 4
  store ptr %0, ptr %3, align 8, !tbaa !37
  store i32 %1, ptr %4, align 4, !tbaa !3
  call void @llvm.lifetime.start.p0(i64 4, ptr %5) #10
  %6 = load ptr, ptr %3, align 8, !tbaa !37
  %7 = getelementptr inbounds nuw %struct.pmix_object_t, ptr %6, i32 0, i32 0
  %8 = call i32 @pthread_mutex_lock(ptr noundef %7) #10
  store i32 %8, ptr %5, align 4, !tbaa !3
  %9 = load i32, ptr %5, align 4, !tbaa !3
  %10 = icmp eq i32 %9, 35
  br i1 %10, label %11, label %14

11:                                               ; preds = %2
  %12 = load i32, ptr %5, align 4, !tbaa !3
  %13 = call ptr @__errno_location() #11
  store i32 %12, ptr %13, align 4, !tbaa !3
  call void @perror(ptr noundef @.str.11)
  call void @abort() #12
  unreachable

14:                                               ; preds = %2
  %15 = load i32, ptr %4, align 4, !tbaa !3
  %16 = load ptr, ptr %3, align 8, !tbaa !37
  %17 = getelementptr inbounds nuw %struct.pmix_object_t, ptr %16, i32 0, i32 2
  %18 = load i32, ptr %17, align 8, !tbaa !45
  %19 = add nsw i32 %18, %15
  store i32 %19, ptr %17, align 8, !tbaa !45
  store i32 %19, ptr %5, align 4, !tbaa !3
  %20 = load ptr, ptr %3, align 8, !tbaa !37
  %21 = getelementptr inbounds nuw %struct.pmix_object_t, ptr %20, i32 0, i32 0
  %22 = call i32 @pthread_mutex_unlock(ptr noundef %21) #10
  %23 = load i32, ptr %5, align 4, !tbaa !3
  call void @llvm.lifetime.end.p0(i64 4, ptr %5) #10
  ret i32 %23
}

; Function Attrs: inlinehint nounwind uwtable
define internal void @pmix_obj_run_destructors(ptr noundef %0) #2 {
  %2 = alloca ptr, align 8
  %3 = alloca ptr, align 8
  store ptr %0, ptr %2, align 8, !tbaa !37
  call void @llvm.lifetime.start.p0(i64 8, ptr %3) #10
  %4 = load ptr, ptr %2, align 8, !tbaa !37
  %5 = getelementptr inbounds nuw %struct.pmix_object_t, ptr %4, i32 0, i32 1
  %6 = load ptr, ptr %5, align 8, !tbaa !46
  %7 = getelementptr inbounds nuw %struct.pmix_class_t, ptr %6, i32 0, i32 7
  %8 = load ptr, ptr %7, align 8, !tbaa !47
  store ptr %8, ptr %3, align 8, !tbaa !9
  br label %9

9:                                                ; preds = %13, %1
  %10 = load ptr, ptr %3, align 8, !tbaa !9
  %11 = load ptr, ptr %10, align 8, !tbaa !9
  %12 = icmp ne ptr null, %11
  br i1 %12, label %13, label %19

13:                                               ; preds = %9
  %14 = load ptr, ptr %3, align 8, !tbaa !9
  %15 = load ptr, ptr %14, align 8, !tbaa !9
  %16 = load ptr, ptr %2, align 8, !tbaa !37
  call void %15(ptr noundef %16)
  %17 = load ptr, ptr %3, align 8, !tbaa !9
  %18 = getelementptr inbounds nuw ptr, ptr %17, i32 1
  store ptr %18, ptr %3, align 8, !tbaa !9
  br label %9, !llvm.loop !50

19:                                               ; preds = %9
  call void @llvm.lifetime.end.p0(i64 8, ptr %3) #10
  ret void
}

; Function Attrs: nounwind uwtable
define internal void @chdes(ptr noundef %0) #0 {
  %2 = alloca ptr, align 8
  %3 = alloca ptr, align 8
  %4 = alloca ptr, align 8
  store ptr %0, ptr %2, align 8, !tbaa !9
  br label %5

5:                                                ; preds = %1
  %6 = load ptr, ptr %2, align 8, !tbaa !9
  %7 = getelementptr inbounds nuw %struct.pmix_pfexec_child_t, ptr %6, i32 0, i32 8
  call void @pmix_obj_run_destructors(ptr noundef %7)
  br label %8

8:                                                ; preds = %5
  %9 = load ptr, ptr %2, align 8, !tbaa !9
  %10 = getelementptr inbounds nuw %struct.pmix_pfexec_child_t, ptr %9, i32 0, i32 9
  %11 = load ptr, ptr %10, align 8, !tbaa !68
  %12 = icmp ne ptr null, %11
  br i1 %12, label %13, label %43

13:                                               ; preds = %8
  br label %14

14:                                               ; preds = %13
  call void @llvm.lifetime.start.p0(i64 8, ptr %3) #10
  %15 = load ptr, ptr %2, align 8, !tbaa !9
  %16 = getelementptr inbounds nuw %struct.pmix_pfexec_child_t, ptr %15, i32 0, i32 9
  %17 = load ptr, ptr %16, align 8, !tbaa !68
  store ptr %17, ptr %3, align 8, !tbaa !37
  %18 = load ptr, ptr %3, align 8, !tbaa !37
  %19 = call i32 @pmix_obj_update(ptr noundef %18, i32 noundef -1)
  %20 = icmp eq i32 0, %19
  br i1 %20, label %21, label %41

21:                                               ; preds = %14
  %22 = load ptr, ptr %3, align 8, !tbaa !37
  call void @pmix_obj_run_destructors(ptr noundef %22)
  %23 = load ptr, ptr %3, align 8, !tbaa !37
  %24 = getelementptr inbounds nuw %struct.pmix_object_t, ptr %23, i32 0, i32 3
  %25 = getelementptr inbounds nuw %struct.pmix_tma, ptr %24, i32 0, i32 5
  %26 = load ptr, ptr %25, align 8, !tbaa !39
  %27 = icmp ne ptr null, %26
  br i1 %27, label %28, label %34

28:                                               ; preds = %21
  %29 = load ptr, ptr %3, align 8, !tbaa !37
  %30 = getelementptr inbounds nuw %struct.pmix_object_t, ptr %29, i32 0, i32 3
  %31 = load ptr, ptr %2, align 8, !tbaa !9
  %32 = getelementptr inbounds nuw %struct.pmix_pfexec_child_t, ptr %31, i32 0, i32 9
  %33 = load ptr, ptr %32, align 8, !tbaa !68
  call void @pmix_tma_free(ptr noundef %30, ptr noundef %33)
  br label %38

34:                                               ; preds = %21
  %35 = load ptr, ptr %2, align 8, !tbaa !9
  %36 = getelementptr inbounds nuw %struct.pmix_pfexec_child_t, ptr %35, i32 0, i32 9
  %37 = load ptr, ptr %36, align 8, !tbaa !68
  call void @free(ptr noundef %37) #10
  br label %38

38:                                               ; preds = %34, %28
  %39 = load ptr, ptr %2, align 8, !tbaa !9
  %40 = getelementptr inbounds nuw %struct.pmix_pfexec_child_t, ptr %39, i32 0, i32 9
  store ptr null, ptr %40, align 8, !tbaa !68
  br label %41

41:                                               ; preds = %38, %14
  call void @llvm.lifetime.end.p0(i64 8, ptr %3) #10
  br label %42

42:                                               ; preds = %41
  br label %43

43:                                               ; preds = %42, %8
  %44 = load ptr, ptr %2, align 8, !tbaa !9
  %45 = getelementptr inbounds nuw %struct.pmix_pfexec_child_t, ptr %44, i32 0, i32 10
  %46 = load ptr, ptr %45, align 8, !tbaa !69
  %47 = icmp ne ptr null, %46
  br i1 %47, label %48, label %78

48:                                               ; preds = %43
  br label %49

49:                                               ; preds = %48
  call void @llvm.lifetime.start.p0(i64 8, ptr %4) #10
  %50 = load ptr, ptr %2, align 8, !tbaa !9
  %51 = getelementptr inbounds nuw %struct.pmix_pfexec_child_t, ptr %50, i32 0, i32 10
  %52 = load ptr, ptr %51, align 8, !tbaa !69
  store ptr %52, ptr %4, align 8, !tbaa !37
  %53 = load ptr, ptr %4, align 8, !tbaa !37
  %54 = call i32 @pmix_obj_update(ptr noundef %53, i32 noundef -1)
  %55 = icmp eq i32 0, %54
  br i1 %55, label %56, label %76

56:                                               ; preds = %49
  %57 = load ptr, ptr %4, align 8, !tbaa !37
  call void @pmix_obj_run_destructors(ptr noundef %57)
  %58 = load ptr, ptr %4, align 8, !tbaa !37
  %59 = getelementptr inbounds nuw %struct.pmix_object_t, ptr %58, i32 0, i32 3
  %60 = getelementptr inbounds nuw %struct.pmix_tma, ptr %59, i32 0, i32 5
  %61 = load ptr, ptr %60, align 8, !tbaa !39
  %62 = icmp ne ptr null, %61
  br i1 %62, label %63, label %69

63:                                               ; preds = %56
  %64 = load ptr, ptr %4, align 8, !tbaa !37
  %65 = getelementptr inbounds nuw %struct.pmix_object_t, ptr %64, i32 0, i32 3
  %66 = load ptr, ptr %2, align 8, !tbaa !9
  %67 = getelementptr inbounds nuw %struct.pmix_pfexec_child_t, ptr %66, i32 0, i32 10
  %68 = load ptr, ptr %67, align 8, !tbaa !69
  call void @pmix_tma_free(ptr noundef %65, ptr noundef %68)
  br label %73

69:                                               ; preds = %56
  %70 = load ptr, ptr %2, align 8, !tbaa !9
  %71 = getelementptr inbounds nuw %struct.pmix_pfexec_child_t, ptr %70, i32 0, i32 10
  %72 = load ptr, ptr %71, align 8, !tbaa !69
  call void @free(ptr noundef %72) #10
  br label %73

73:                                               ; preds = %69, %63
  %74 = load ptr, ptr %2, align 8, !tbaa !9
  %75 = getelementptr inbounds nuw %struct.pmix_pfexec_child_t, ptr %74, i32 0, i32 10
  store ptr null, ptr %75, align 8, !tbaa !69
  br label %76

76:                                               ; preds = %73, %49
  call void @llvm.lifetime.end.p0(i64 8, ptr %4) #10
  br label %77

77:                                               ; preds = %76
  br label %78

78:                                               ; preds = %77, %43
  %79 = load ptr, ptr %2, align 8, !tbaa !9
  %80 = getelementptr inbounds nuw %struct.pmix_pfexec_child_t, ptr %79, i32 0, i32 6
  %81 = getelementptr inbounds [2 x i32], ptr %80, i64 0, i64 0
  %82 = load i32, ptr %81, align 8, !tbaa !3
  %83 = icmp sle i32 0, %82
  br i1 %83, label %84, label %90

84:                                               ; preds = %78
  %85 = load ptr, ptr %2, align 8, !tbaa !9
  %86 = getelementptr inbounds nuw %struct.pmix_pfexec_child_t, ptr %85, i32 0, i32 6
  %87 = getelementptr inbounds [2 x i32], ptr %86, i64 0, i64 0
  %88 = load i32, ptr %87, align 8, !tbaa !3
  %89 = call i32 @close(i32 noundef %88)
  br label %90

90:                                               ; preds = %84, %78
  %91 = load ptr, ptr %2, align 8, !tbaa !9
  %92 = getelementptr inbounds nuw %struct.pmix_pfexec_child_t, ptr %91, i32 0, i32 6
  %93 = getelementptr inbounds [2 x i32], ptr %92, i64 0, i64 1
  %94 = load i32, ptr %93, align 4, !tbaa !3
  %95 = icmp sle i32 0, %94
  br i1 %95, label %96, label %102

96:                                               ; preds = %90
  %97 = load ptr, ptr %2, align 8, !tbaa !9
  %98 = getelementptr inbounds nuw %struct.pmix_pfexec_child_t, ptr %97, i32 0, i32 6
  %99 = getelementptr inbounds [2 x i32], ptr %98, i64 0, i64 1
  %100 = load i32, ptr %99, align 4, !tbaa !3
  %101 = call i32 @close(i32 noundef %100)
  br label %102

102:                                              ; preds = %96, %90
  ret void
}