; Function Attrs: nounwind uwtable
define internal void @chdes(ptr noundef %0) #0 {
  %2 = getelementptr inbounds nuw i8, ptr %0, i64 584
  %3 = getelementptr inbounds nuw i8, ptr %0, i64 624
  %4 = load ptr, ptr %3, align 8, !tbaa !31
  %5 = getelementptr inbounds nuw i8, ptr %4, i64 48
  %6 = load ptr, ptr %5, align 8, !tbaa !32
  %7 = load ptr, ptr %6, align 8, !tbaa !35
  %.not6.i = icmp eq ptr %7, null
  br i1 %.not6.i, label %pmix_obj_run_destructors.exit, label %.lr.ph.i

.lr.ph.i:                                         ; preds = %1, %.lr.ph.i
  %8 = phi ptr [ %10, %.lr.ph.i ], [ %7, %1 ]
  %.07.i = phi ptr [ %9, %.lr.ph.i ], [ %6, %1 ]
  tail call void %8(ptr noundef nonnull %2) #10
  %9 = getelementptr inbounds nuw i8, ptr %.07.i, i64 8
  %10 = load ptr, ptr %9, align 8, !tbaa !35
  %.not.i = icmp eq ptr %10, null
  br i1 %.not.i, label %pmix_obj_run_destructors.exit, label %.lr.ph.i, !llvm.loop !36

pmix_obj_run_destructors.exit:                    ; preds = %.lr.ph.i, %1
  %11 = getelementptr inbounds nuw i8, ptr %0, i64 1456
  %12 = load ptr, ptr %11, align 8, !tbaa !60
  %.not = icmp eq ptr %12, null
  br i1 %.not, label %40, label %13

13:                                               ; preds = %pmix_obj_run_destructors.exit
  %14 = tail call i32 @pthread_mutex_lock(ptr noundef nonnull %12) #10
  %15 = icmp eq i32 %14, 35
  br i1 %15, label %16, label %pmix_obj_update.exit29

16:                                               ; preds = %13
  %17 = tail call ptr @__errno_location() #11
  store i32 35, ptr %17, align 4, !tbaa !29
  tail call void @perror(ptr noundef nonnull @.str.11) #12
  tail call void @abort() #13
  unreachable

pmix_obj_update.exit29:                           ; preds = %13
  %18 = getelementptr inbounds nuw i8, ptr %12, i64 48
  %19 = load i32, ptr %18, align 8, !tbaa !30
  %20 = add nsw i32 %19, -1
  store i32 %20, ptr %18, align 8, !tbaa !30
  %21 = tail call i32 @pthread_mutex_unlock(ptr noundef nonnull %12) #10
  %22 = icmp eq i32 %20, 0
  br i1 %22, label %23, label %40

23:                                               ; preds = %pmix_obj_update.exit29
  %24 = getelementptr inbounds nuw i8, ptr %12, i64 40
  %25 = load ptr, ptr %24, align 8, !tbaa !31
  %26 = getelementptr inbounds nuw i8, ptr %25, i64 48
  %27 = load ptr, ptr %26, align 8, !tbaa !32
  %28 = load ptr, ptr %27, align 8, !tbaa !35
  %.not6.i30 = icmp eq ptr %28, null
  br i1 %.not6.i30, label %pmix_obj_run_destructors.exit34, label %.lr.ph.i31

.lr.ph.i31:                                       ; preds = %23, %.lr.ph.i31
  %29 = phi ptr [ %31, %.lr.ph.i31 ], [ %28, %23 ]
  %.07.i32 = phi ptr [ %30, %.lr.ph.i31 ], [ %27, %23 ]
  tail call void %29(ptr noundef nonnull %12) #10
  %30 = getelementptr inbounds nuw i8, ptr %.07.i32, i64 8
  %31 = load ptr, ptr %30, align 8, !tbaa !35
  %.not.i33 = icmp eq ptr %31, null
  br i1 %.not.i33, label %pmix_obj_run_destructors.exit34, label %.lr.ph.i31, !llvm.loop !36

pmix_obj_run_destructors.exit34:                  ; preds = %.lr.ph.i31, %23
  %32 = getelementptr inbounds nuw i8, ptr %12, i64 96
  %33 = load ptr, ptr %32, align 8, !tbaa !37
  %.not26 = icmp eq ptr %33, null
  br i1 %.not26, label %37, label %34

34:                                               ; preds = %pmix_obj_run_destructors.exit34
  %35 = getelementptr inbounds nuw i8, ptr %12, i64 56
  %36 = load ptr, ptr %11, align 8, !tbaa !60
  tail call void %33(ptr noundef nonnull %35, ptr noundef %36) #10
  br label %39

37:                                               ; preds = %pmix_obj_run_destructors.exit34
  %38 = load ptr, ptr %11, align 8, !tbaa !60
  tail call void @free(ptr noundef %38) #10
  br label %39

39:                                               ; preds = %37, %34
  store ptr null, ptr %11, align 8, !tbaa !60
  br label %40

40:                                               ; preds = %pmix_obj_update.exit29, %39, %pmix_obj_run_destructors.exit
  %41 = getelementptr inbounds nuw i8, ptr %0, i64 1464
  %42 = load ptr, ptr %41, align 8, !tbaa !61
  %.not27 = icmp eq ptr %42, null
  br i1 %.not27, label %70, label %43

43:                                               ; preds = %40
  %44 = tail call i32 @pthread_mutex_lock(ptr noundef nonnull %42) #10
  %45 = icmp eq i32 %44, 35
  br i1 %45, label %46, label %pmix_obj_update.exit

46:                                               ; preds = %43
  %47 = tail call ptr @__errno_location() #11
  store i32 35, ptr %47, align 4, !tbaa !29
  tail call void @perror(ptr noundef nonnull @.str.11) #12
  tail call void @abort() #13
  unreachable

pmix_obj_update.exit:                             ; preds = %43
  %48 = getelementptr inbounds nuw i8, ptr %42, i64 48
  %49 = load i32, ptr %48, align 8, !tbaa !30
  %50 = add nsw i32 %49, -1
  store i32 %50, ptr %48, align 8, !tbaa !30
  %51 = tail call i32 @pthread_mutex_unlock(ptr noundef nonnull %42) #10
  %52 = icmp eq i32 %50, 0
  br i1 %52, label %53, label %70

53:                                               ; preds = %pmix_obj_update.exit
  %54 = getelementptr inbounds nuw i8, ptr %42, i64 40
  %55 = load ptr, ptr %54, align 8, !tbaa !31
  %56 = getelementptr inbounds nuw i8, ptr %55, i64 48
  %57 = load ptr, ptr %56, align 8, !tbaa !32
  %58 = load ptr, ptr %57, align 8, !tbaa !35
  %.not6.i36 = icmp eq ptr %58, null
  br i1 %.not6.i36, label %pmix_obj_run_destructors.exit40, label %.lr.ph.i37

.lr.ph.i37:                                       ; preds = %53, %.lr.ph.i37
  %59 = phi ptr [ %61, %.lr.ph.i37 ], [ %58, %53 ]
  %.07.i38 = phi ptr [ %60, %.lr.ph.i37 ], [ %57, %53 ]
  tail call void %59(ptr noundef nonnull %42) #10
  %60 = getelementptr inbounds nuw i8, ptr %.07.i38, i64 8
  %61 = load ptr, ptr %60, align 8, !tbaa !35
  %.not.i39 = icmp eq ptr %61, null
  br i1 %.not.i39, label %pmix_obj_run_destructors.exit40, label %.lr.ph.i37, !llvm.loop !36

pmix_obj_run_destructors.exit40:                  ; preds = %.lr.ph.i37, %53
  %62 = getelementptr inbounds nuw i8, ptr %42, i64 96
  %63 = load ptr, ptr %62, align 8, !tbaa !37
  %.not28 = icmp eq ptr %63, null
  br i1 %.not28, label %67, label %64

64:                                               ; preds = %pmix_obj_run_destructors.exit40
  %65 = getelementptr inbounds nuw i8, ptr %42, i64 56
  %66 = load ptr, ptr %41, align 8, !tbaa !61
  tail call void %63(ptr noundef nonnull %65, ptr noundef %66) #10
  br label %69

67:                                               ; preds = %pmix_obj_run_destructors.exit40
  %68 = load ptr, ptr %41, align 8, !tbaa !61
  tail call void @free(ptr noundef %68) #10
  br label %69

69:                                               ; preds = %67, %64
  store ptr null, ptr %41, align 8, !tbaa !61
  br label %70

70:                                               ; preds = %pmix_obj_update.exit, %69, %40
  %71 = getelementptr inbounds nuw i8, ptr %0, i64 544
  %72 = load i32, ptr %71, align 8, !tbaa !29
  %73 = icmp sgt i32 %72, -1
  br i1 %73, label %74, label %76

74:                                               ; preds = %70
  %75 = tail call i32 @close(i32 noundef %72) #10
  br label %76

76:                                               ; preds = %74, %70
  %77 = getelementptr inbounds nuw i8, ptr %0, i64 548
  %78 = load i32, ptr %77, align 4, !tbaa !29
  %79 = icmp sgt i32 %78, -1
  br i1 %79, label %80, label %82

80:                                               ; preds = %76
  %81 = tail call i32 @close(i32 noundef %78) #10
  br label %82

82:                                               ; preds = %80, %76
  ret void
}